target datalayout = "e-m:e-p270:32:32-p271:32:32-p272:64:64-i64:64-i128:128-f80:128-n8:16:32:64-S128"
target triple = "x86_64-pc-linux-gnu"

%class.BasicHeapWalkContext = type { %class.HeapWalkContext, ptr, ptr, ptr, ptr, i64 }
%class.HeapWalkContext = type { i8 }
%class.AdvancedHeapWalkContext = type { %class.HeapWalkContext, i32, ptr, ptr }

@_ZN15CallbackInvoker15_heap_walk_typeE = hidden global i32 0, align 4
@_ZN15CallbackInvoker14_basic_contextE = hidden global %class.BasicHeapWalkContext zeroinitializer, align 8
@_ZN15CallbackInvoker17_advanced_contextE = hidden global %class.AdvancedHeapWalkContext zeroinitializer, align 8
@_ZN15CallbackInvoker8_tag_mapE = hidden global ptr null, align 8
@_ZN15CallbackInvoker10_user_dataE = hidden global ptr null, align 8
@_ZN15CallbackInvoker12_visit_stackE = hidden global ptr null, align 8
@_ZN15CallbackInvoker7_bitsetE = hidden global ptr null, align 8

; Function Attrs: mustprogress nounwind uwtable
define linkonce_odr hidden void @_ZN15HeapWalkContext10invalidateEv(ptr noundef nonnull align 1 dereferenceable(1) %0) #1 comdat align 2 {
  %2 = alloca ptr, align 8
  store ptr %0, ptr %2, align 8
  %3 = load ptr, ptr %2, align 8
  %4 = getelementptr inbounds %class.HeapWalkContext, ptr %3, i32 0, i32 0
  store i8 0, ptr %4, align 1
  ret void
}

; Function Attrs: mustprogress nounwind uwtable
define hidden void @_ZN15CallbackInvoker33initialize_for_advanced_heap_walkEP11JvmtiTagMapP13GrowableArrayIP7oopDescEPKv23AdvancedHeapWalkContextP12ObjectBitSetIL8MEMFLAGS23EE(ptr noundef %0, ptr noundef %1, ptr noundef %2, ptr noundef byval(%class.AdvancedHeapWalkContext) align 8 %3, ptr noundef %4) #1 align 2 {
  %6 = alloca ptr, align 8
  %7 = alloca ptr, align 8
  %8 = alloca ptr, align 8
  %9 = alloca ptr, align 8
  store ptr %0, ptr %6, align 8
  store ptr %1, ptr %7, align 8
  store ptr %2, ptr %8, align 8
  store ptr %4, ptr %9, align 8
  %10 = load ptr, ptr %6, align 8
  store ptr %10, ptr @_ZN15CallbackInvoker8_tag_mapE, align 8
  %11 = load ptr, ptr %7, align 8
  store ptr %11, ptr @_ZN15CallbackInvoker12_visit_stackE, align 8
  %12 = load ptr, ptr %8, align 8
  store ptr %12, ptr @_ZN15CallbackInvoker10_user_dataE, align 8
  call void @llvm.memcpy.p0.p0.i64(ptr align 8 @_ZN15CallbackInvoker17_advanced_contextE, ptr align 8 %3, i64 24, i1 false)
  call void @_ZN15HeapWalkContext10invalidateEv(ptr noundef nonnull align 1 dereferenceable(1) @_ZN15CallbackInvoker14_basic_contextE)
  store i32 1, ptr @_ZN15CallbackInvoker15_heap_walk_typeE, align 4
  %13 = load ptr, ptr %9, align 8
  store ptr %13, ptr @_ZN15CallbackInvoker7_bitsetE, align 8
  ret void
}