; Function Attrs: mustprogress nofree norecurse nosync nounwind willreturn memory(readwrite, inaccessiblemem: none) uwtable
define hidden void @_ZN15CallbackInvoker33initialize_for_advanced_heap_walkEP11JvmtiTagMapP13GrowableArrayIP7oopDescEPKv23AdvancedHeapWalkContextP12ObjectBitSetIL8MEMFLAGS23EE(ptr noundef %0, ptr noundef %1, ptr noundef %2, ptr nocapture noundef readonly byval(%class.AdvancedHeapWalkContext) align 8 %3, ptr noundef %4) local_unnamed_addr #5 align 2 {
  store ptr %0, ptr @_ZN15CallbackInvoker8_tag_mapE, align 8
  store ptr %1, ptr @_ZN15CallbackInvoker12_visit_stackE, align 8
  store ptr %2, ptr @_ZN15CallbackInvoker10_user_dataE, align 8
  call void @llvm.memcpy.p0.p0.i64(ptr noundef nonnull align 8 dereferenceable(24) @_ZN15CallbackInvoker17_advanced_contextE, ptr noundef nonnull align 8 dereferenceable(24) %3, i64 24, i1 false)
  store i8 0, ptr @_ZN15CallbackInvoker14_basic_contextE, align 8
  store i32 1, ptr @_ZN15CallbackInvoker15_heap_walk_typeE, align 4
  store ptr %4, ptr @_ZN15CallbackInvoker7_bitsetE, align 8
  ret void
}